target datalayout = "e-m:e-p270:32:32-p271:32:32-p272:64:64-i64:64-i128:128-f80:128-n8:16:32:64-S128"
target triple = "x86_64-pc-linux-gnu"

; Function Attrs: mustprogress nounwind uwtable
define noundef i32 @_Z6IsCardc(i8 noundef signext %0) #1 {
  %2 = alloca i32, align 4
  %3 = alloca i8, align 1
  store i8 %0, ptr %3, align 1
  %4 = load i8, ptr %3, align 1
  %5 = sext i8 %4 to i32
  switch i32 %5, label %19 [
    i32 50, label %6
    i32 51, label %7
    i32 52, label %8
    i32 53, label %9
    i32 54, label %10
    i32 55, label %11
    i32 56, label %12
    i32 57, label %13
    i32 84, label %14
    i32 116, label %14
    i32 74, label %15
    i32 106, label %15
    i32 81, label %16
    i32 113, label %16
    i32 75, label %17
    i32 107, label %17
    i32 65, label %18
    i32 97, label %18
  ]

6:                                                ; preds = %1
  store i32 2, ptr %2, align 4
  br label %20

7:                                                ; preds = %1
  store i32 3, ptr %2, align 4
  br label %20

8:                                                ; preds = %1
  store i32 4, ptr %2, align 4
  br label %20

9:                                                ; preds = %1
  store i32 5, ptr %2, align 4
  br label %20

10:                                               ; preds = %1
  store i32 6, ptr %2, align 4
  br label %20

11:                                               ; preds = %1
  store i32 7, ptr %2, align 4
  br label %20

12:                                               ; preds = %1
  store i32 8, ptr %2, align 4
  br label %20

13:                                               ; preds = %1
  store i32 9, ptr %2, align 4
  br label %20

14:                                               ; preds = %1, %1
  store i32 10, ptr %2, align 4
  br label %20

15:                                               ; preds = %1, %1
  store i32 11, ptr %2, align 4
  br label %20

16:                                               ; preds = %1, %1
  store i32 12, ptr %2, align 4
  br label %20

17:                                               ; preds = %1, %1
  store i32 13, ptr %2, align 4
  br label %20

18:                                               ; preds = %1, %1
  store i32 14, ptr %2, align 4
  br label %20

19:                                               ; preds = %1
  store i32 0, ptr %2, align 4
  br label %20

20:                                               ; preds = %19, %18, %17, %16, %15, %14, %13, %12, %11, %10, %9, %8, %7, %6
  %21 = load i32, ptr %2, align 4
  ret i32 %21
}