; Function Attrs: mustprogress nofree norecurse nosync nounwind willreturn memory(none) uwtable
define noundef range(i32 0, 15) i32 @_Z6IsCardc(i8 noundef signext %0) local_unnamed_addr #1 {
  switch i8 %0, label %14 [
    i8 50, label %15
    i8 51, label %2
    i8 52, label %3
    i8 53, label %4
    i8 54, label %5
    i8 55, label %6
    i8 56, label %7
    i8 57, label %8
    i8 84, label %9
    i8 116, label %9
    i8 74, label %10
    i8 106, label %10
    i8 81, label %11
    i8 113, label %11
    i8 75, label %12
    i8 107, label %12
    i8 65, label %13
    i8 97, label %13
  ]

2:                                                ; preds = %1
  br label %15

3:                                                ; preds = %1
  br label %15

4:                                                ; preds = %1
  br label %15

5:                                                ; preds = %1
  br label %15

6:                                                ; preds = %1
  br label %15

7:                                                ; preds = %1
  br label %15

8:                                                ; preds = %1
  br label %15

9:                                                ; preds = %1, %1
  br label %15

10:                                               ; preds = %1, %1
  br label %15

11:                                               ; preds = %1, %1
  br label %15

12:                                               ; preds = %1, %1
  br label %15

13:                                               ; preds = %1, %1
  br label %15

14:                                               ; preds = %1
  br label %15

15:                                               ; preds = %1, %14, %13, %12, %11, %10, %9, %8, %7, %6, %5, %4, %3, %2
  %.0 = phi i32 [ 0, %14 ], [ 14, %13 ], [ 13, %12 ], [ 12, %11 ], [ 11, %10 ], [ 10, %9 ], [ 9, %8 ], [ 8, %7 ], [ 7, %6 ], [ 6, %5 ], [ 5, %4 ], [ 4, %3 ], [ 3, %2 ], [ 2, %1 ]
  ret i32 %.0
}